target datalayout = "e-m:e-p270:32:32-p271:32:32-p272:64:64-i64:64-i128:128-f80:128-n8:16:32:64-S128"
target triple = "x86_64-pc-linux-gnu"

; Function Attrs: nounwind uwtable
define void @QDLDL_Lsolve(i64 noundef %0, ptr noundef %1, ptr noundef %2, ptr noundef %3, ptr noundef %4) #0 {
  %6 = alloca i64, align 8
  %7 = alloca ptr, align 8
  %8 = alloca ptr, align 8
  %9 = alloca ptr, align 8
  %10 = alloca ptr, align 8
  %11 = alloca i64, align 8
  %12 = alloca i64, align 8
  %13 = alloca double, align 8
  store i64 %0, ptr %6, align 8, !tbaa !3
  store ptr %1, ptr %7, align 8, !tbaa !7
  store ptr %2, ptr %8, align 8, !tbaa !7
  store ptr %3, ptr %9, align 8, !tbaa !16
  store ptr %4, ptr %10, align 8, !tbaa !16
  call void @llvm.lifetime.start.p0(i64 8, ptr %11) #3
  call void @llvm.lifetime.start.p0(i64 8, ptr %12) #3
  store i64 0, ptr %11, align 8, !tbaa !3
  br label %14

14:                                               ; preds = %54, %5
  %15 = load i64, ptr %11, align 8, !tbaa !3
  %16 = load i64, ptr %6, align 8, !tbaa !3
  %17 = icmp slt i64 %15, %16
  br i1 %17, label %18, label %57

18:                                               ; preds = %14
  call void @llvm.lifetime.start.p0(i64 8, ptr %13) #3
  %19 = load ptr, ptr %10, align 8, !tbaa !16
  %20 = load i64, ptr %11, align 8, !tbaa !3
  %21 = getelementptr inbounds double, ptr %19, i64 %20
  %22 = load double, ptr %21, align 8, !tbaa !21
  store double %22, ptr %13, align 8, !tbaa !21
  %23 = load ptr, ptr %7, align 8, !tbaa !7
  %24 = load i64, ptr %11, align 8, !tbaa !3
  %25 = getelementptr inbounds i64, ptr %23, i64 %24
  %26 = load i64, ptr %25, align 8, !tbaa !3
  store i64 %26, ptr %12, align 8, !tbaa !3
  br label %27

27:                                               ; preds = %50, %18
  %28 = load i64, ptr %12, align 8, !tbaa !3
  %29 = load ptr, ptr %7, align 8, !tbaa !7
  %30 = load i64, ptr %11, align 8, !tbaa !3
  %31 = add nsw i64 %30, 1
  %32 = getelementptr inbounds i64, ptr %29, i64 %31
  %33 = load i64, ptr %32, align 8, !tbaa !3
  %34 = icmp slt i64 %28, %33
  br i1 %34, label %35, label %53

35:                                               ; preds = %27
  %36 = load ptr, ptr %9, align 8, !tbaa !16
  %37 = load i64, ptr %12, align 8, !tbaa !3
  %38 = getelementptr inbounds double, ptr %36, i64 %37
  %39 = load double, ptr %38, align 8, !tbaa !21
  %40 = load double, ptr %13, align 8, !tbaa !21
  %41 = load ptr, ptr %10, align 8, !tbaa !16
  %42 = load ptr, ptr %8, align 8, !tbaa !7
  %43 = load i64, ptr %12, align 8, !tbaa !3
  %44 = getelementptr inbounds i64, ptr %42, i64 %43
  %45 = load i64, ptr %44, align 8, !tbaa !3
  %46 = getelementptr inbounds double, ptr %41, i64 %45
  %47 = load double, ptr %46, align 8, !tbaa !21
  %48 = fneg double %39
  %49 = call double @llvm.fmuladd.f64(double %48, double %40, double %47)
  store double %49, ptr %46, align 8, !tbaa !21
  br label %50

50:                                               ; preds = %35
  %51 = load i64, ptr %12, align 8, !tbaa !3
  %52 = add nsw i64 %51, 1
  store i64 %52, ptr %12, align 8, !tbaa !3
  br label %27, !llvm.loop !30

53:                                               ; preds = %27
  call void @llvm.lifetime.end.p0(i64 8, ptr %13) #3
  br label %54

54:                                               ; preds = %53
  %55 = load i64, ptr %11, align 8, !tbaa !3
  %56 = add nsw i64 %55, 1
  store i64 %56, ptr %11, align 8, !tbaa !3
  br label %14, !llvm.loop !31

57:                                               ; preds = %14
  call void @llvm.lifetime.end.p0(i64 8, ptr %12) #3
  call void @llvm.lifetime.end.p0(i64 8, ptr %11) #3
  ret void
}