; Function Attrs: nofree norecurse nosync nounwind memory(argmem: readwrite) uwtable
define void @QDLDL_Lsolve(i64 noundef %0, ptr noundef readonly captures(none) %1, ptr noundef readonly captures(none) %2, ptr noundef readonly captures(none) %3, ptr noundef captures(none) %4) local_unnamed_addr #0 {
  %6 = icmp sgt i64 %0, 0
  br i1 %6, label %.lr.ph19.preheader, label %._crit_edge

.lr.ph19.preheader:                               ; preds = %5
  %.pre = load i64, ptr %1, align 8, !tbaa !3
  br label %.lr.ph19

.loopexit:                                        ; preds = %.lr.ph, %.lr.ph19
  %exitcond20.not = icmp eq i64 %10, %0
  br i1 %exitcond20.not, label %._crit_edge, label %.lr.ph19, !llvm.loop !23

.lr.ph19:                                         ; preds = %.lr.ph19.preheader, %.loopexit
  %7 = phi i64 [ %12, %.loopexit ], [ %.pre, %.lr.ph19.preheader ]
  %.018 = phi i64 [ %10, %.loopexit ], [ 0, %.lr.ph19.preheader ]
  %8 = getelementptr inbounds nuw double, ptr %4, i64 %.018
  %9 = load double, ptr %8, align 8, !tbaa !14
  %10 = add nuw nsw i64 %.018, 1
  %11 = getelementptr inbounds nuw i64, ptr %1, i64 %10
  %12 = load i64, ptr %11, align 8, !tbaa !3
  %13 = icmp slt i64 %7, %12
  br i1 %13, label %.lr.ph, label %.loopexit

.lr.ph:                                           ; preds = %.lr.ph19, %.lr.ph
  %.01617 = phi i64 [ %22, %.lr.ph ], [ %7, %.lr.ph19 ]
  %14 = getelementptr inbounds double, ptr %3, i64 %.01617
  %15 = load double, ptr %14, align 8, !tbaa !14
  %16 = getelementptr inbounds i64, ptr %2, i64 %.01617
  %17 = load i64, ptr %16, align 8, !tbaa !3
  %18 = getelementptr inbounds double, ptr %4, i64 %17
  %19 = load double, ptr %18, align 8, !tbaa !14
  %20 = fneg double %15
  %21 = tail call double @llvm.fmuladd.f64(double %20, double %9, double %19)
  store double %21, ptr %18, align 8, !tbaa !14
  %22 = add nsw i64 %.01617, 1
  %exitcond.not = icmp eq i64 %22, %12
  br i1 %exitcond.not, label %.loopexit, label %.lr.ph, !llvm.loop !24

._crit_edge:                                      ; preds = %.loopexit, %5
  ret void
}